target datalayout = "e-m:e-p270:32:32-p271:32:32-p272:64:64-i64:64-i128:128-f80:128-n8:16:32:64-S128"
target triple = "x86_64-pc-linux-gnu"

%"class.llvm::SmallVectorBase" = type { ptr, i32, i32 }
%"struct.llvm::EVT" = type { %"class.llvm::MVT", ptr }
%"class.llvm::MVT" = type { i16 }
%"class.llvm::ilist_node_base" = type { %"class.llvm::ilist_detail::node_base_prevnext" }
%"class.llvm::ilist_detail::node_base_prevnext" = type { ptr, ptr }
%"class.llvm::SDValue" = type <{ ptr, i32, [4 x i8] }>
%"class.llvm::SelectionDAG" = type { ptr, ptr, ptr, ptr, ptr, ptr, ptr, ptr, ptr, i32, ptr, ptr, ptr, ptr, ptr, ptr, %"class.llvm::FoldingSet", %"class.llvm::BumpPtrAllocatorImpl", %"class.llvm::SDNode", %"class.llvm::SDValue", %"class.llvm::iplist", %"class.llvm::RecyclingAllocator", %"class.llvm::FoldingSet.82", %"class.llvm::BumpPtrAllocatorImpl", %"class.llvm::ArrayRecycler", ptr, %"class.llvm::DenseMap.89", i16, i8, ptr, %"class.std::vector", %"class.std::vector.95", %"class.std::map.100", %"class.llvm::StringMap", %"class.std::map.106", %"class.llvm::DenseMap.112", ptr }
%"class.llvm::FoldingSet" = type { %"class.llvm::FoldingSetImpl" }
%"class.llvm::FoldingSetImpl" = type { %"class.llvm::FoldingSetBase" }
%"class.llvm::FoldingSetBase" = type { ptr, i32, i32 }
%"class.llvm::SDNode" = type { %"class.llvm::FoldingSetBase::Node", %"class.llvm::ilist_node", i32, %"struct.llvm::SDNodeFlags", %union.anon.81, i16, i32, ptr, ptr, ptr, i16, i16, i32, %"class.llvm::DebugLoc", i32, i32 }
%"class.llvm::FoldingSetBase::Node" = type { ptr }
%"class.llvm::ilist_node" = type { %"class.llvm::ilist_node_impl" }
%"class.llvm::ilist_node_impl" = type { %"class.llvm::ilist_node_base" }
%"struct.llvm::SDNodeFlags" = type { i16 }
%union.anon.81 = type { %"class.llvm::SDNode::LSBaseSDNodeBitfields" }
%"class.llvm::SDNode::LSBaseSDNodeBitfields" = type { i16 }
%"class.llvm::DebugLoc" = type { %"class.llvm::TypedTrackingMDRef" }
%"class.llvm::TypedTrackingMDRef" = type { %"class.llvm::TrackingMDRef" }
%"class.llvm::TrackingMDRef" = type { ptr }
%"class.llvm::iplist" = type { %"class.llvm::iplist_impl" }
%"class.llvm::iplist_impl" = type { %"class.llvm::simple_ilist" }
%"class.llvm::simple_ilist" = type { %"class.llvm::ilist_sentinel" }
%"class.llvm::ilist_sentinel" = type { %"class.llvm::ilist_node_impl" }
%"class.llvm::RecyclingAllocator" = type { %"class.llvm::Recycler", %"class.llvm::BumpPtrAllocatorImpl" }
%"class.llvm::Recycler" = type { ptr }
%"class.llvm::FoldingSet.82" = type { %"class.llvm::FoldingSetImpl.83" }
%"class.llvm::FoldingSetImpl.83" = type { %"class.llvm::FoldingSetBase" }
%"class.llvm::BumpPtrAllocatorImpl" = type { ptr, ptr, %"class.llvm::SmallVector.71", %"class.llvm::SmallVector.76", i64, i64 }
%"class.llvm::SmallVector.71" = type { %"class.llvm::SmallVectorImpl.72", %"struct.llvm::SmallVectorStorage.75" }
%"class.llvm::SmallVectorImpl.72" = type { %"class.llvm::SmallVectorTemplateBase.73" }
%"class.llvm::SmallVectorTemplateBase.73" = type { %"class.llvm::SmallVectorTemplateCommon.74" }
%"class.llvm::SmallVectorTemplateCommon.74" = type { %"class.llvm::SmallVectorBase" }
%"struct.llvm::SmallVectorStorage.75" = type { [32 x i8] }
%"class.llvm::SmallVector.76" = type { %"class.llvm::SmallVectorImpl.77" }
%"class.llvm::SmallVectorImpl.77" = type { %"class.llvm::SmallVectorTemplateBase.78" }
%"class.llvm::SmallVectorTemplateBase.78" = type { %"class.llvm::SmallVectorTemplateCommon.79" }
%"class.llvm::SmallVectorTemplateCommon.79" = type { %"class.llvm::SmallVectorBase" }
%"class.llvm::ArrayRecycler" = type { %"class.llvm::SmallVector.84" }
%"class.llvm::SmallVector.84" = type { %"class.llvm::SmallVectorImpl.85", %"struct.llvm::SmallVectorStorage.88" }
%"class.llvm::SmallVectorImpl.85" = type { %"class.llvm::SmallVectorTemplateBase.86" }
%"class.llvm::SmallVectorTemplateBase.86" = type { %"class.llvm::SmallVectorTemplateCommon.87" }
%"class.llvm::SmallVectorTemplateCommon.87" = type { %"class.llvm::SmallVectorBase" }
%"struct.llvm::SmallVectorStorage.88" = type { [64 x i8] }
%"class.llvm::DenseMap.89" = type <{ ptr, i32, i32, i32, [4 x i8] }>
%"class.std::vector" = type { %"struct.std::_Vector_base" }
%"struct.std::_Vector_base" = type { %"struct.std::_Vector_base<llvm::CondCodeSDNode *, std::allocator<llvm::CondCodeSDNode *>>::_Vector_impl" }
%"struct.std::_Vector_base<llvm::CondCodeSDNode *, std::allocator<llvm::CondCodeSDNode *>>::_Vector_impl" = type { %"struct.std::_Vector_base<llvm::CondCodeSDNode *, std::allocator<llvm::CondCodeSDNode *>>::_Vector_impl_data" }
%"struct.std::_Vector_base<llvm::CondCodeSDNode *, std::allocator<llvm::CondCodeSDNode *>>::_Vector_impl_data" = type { ptr, ptr, ptr }
%"class.std::vector.95" = type { %"struct.std::_Vector_base.96" }
%"struct.std::_Vector_base.96" = type { %"struct.std::_Vector_base<llvm::SDNode *, std::allocator<llvm::SDNode *>>::_Vector_impl" }
%"struct.std::_Vector_base<llvm::SDNode *, std::allocator<llvm::SDNode *>>::_Vector_impl" = type { %"struct.std::_Vector_base<llvm::SDNode *, std::allocator<llvm::SDNode *>>::_Vector_impl_data" }
%"struct.std::_Vector_base<llvm::SDNode *, std::allocator<llvm::SDNode *>>::_Vector_impl_data" = type { ptr, ptr, ptr }
%"class.std::map.100" = type { %"class.std::_Rb_tree.101" }
%"class.std::_Rb_tree.101" = type { %"struct.std::_Rb_tree<llvm::EVT, std::pair<const llvm::EVT, llvm::SDNode *>, std::_Select1st<std::pair<const llvm::EVT, llvm::SDNode *>>, llvm::EVT::compareRawBits>::_Rb_tree_impl" }
%"struct.std::_Rb_tree<llvm::EVT, std::pair<const llvm::EVT, llvm::SDNode *>, std::_Select1st<std::pair<const llvm::EVT, llvm::SDNode *>>, llvm::EVT::compareRawBits>::_Rb_tree_impl" = type { [8 x i8], %"struct.std::_Rb_tree_header" }
%"struct.std::_Rb_tree_header" = type { %"struct.std::_Rb_tree_node_base", i64 }
%"struct.std::_Rb_tree_node_base" = type { i32, ptr, ptr, ptr }
%"class.llvm::StringMap" = type { %"class.llvm::StringMapImpl" }
%"class.llvm::StringMapImpl" = type { ptr, i32, i32, i32, i32 }
%"class.std::map.106" = type { %"class.std::_Rb_tree.107" }
%"class.std::_Rb_tree.107" = type { %"struct.std::_Rb_tree<std::pair<std::__cxx11::basic_string<char>, unsigned int>, std::pair<const std::pair<std::__cxx11::basic_string<char>, unsigned int>, llvm::SDNode *>, std::_Select1st<std::pair<const std::pair<std::__cxx11::basic_string<char>, unsigned int>, llvm::SDNode *>>, std::less<std::pair<std::__cxx11::basic_string<char>, unsigned int>>>::_Rb_tree_impl" }
%"struct.std::_Rb_tree<std::pair<std::__cxx11::basic_string<char>, unsigned int>, std::pair<const std::pair<std::__cxx11::basic_string<char>, unsigned int>, llvm::SDNode *>, std::_Select1st<std::pair<const std::pair<std::__cxx11::basic_string<char>, unsigned int>, llvm::SDNode *>>, std::less<std::pair<std::__cxx11::basic_string<char>, unsigned int>>>::_Rb_tree_impl" = type { [8 x i8], %"struct.std::_Rb_tree_header" }
%"class.llvm::DenseMap.112" = type <{ ptr, i32, i32, i32, [4 x i8] }>

; Function Attrs: mustprogress nounwind uwtable
define linkonce_odr hidden void @_ZN4llvm3MVTC2ENS0_15SimpleValueTypeE(ptr noundef nonnull align 2 dereferenceable(2) %0, i16 noundef zeroext %1) unnamed_addr #1 comdat align 2 {
  %3 = alloca ptr, align 8
  %4 = alloca i16, align 2
  store ptr %0, ptr %3, align 8
  store i16 %1, ptr %4, align 2
  %5 = load ptr, ptr %3, align 8
  %6 = getelementptr inbounds nuw %"class.llvm::MVT", ptr %5, i32 0, i32 0
  %7 = load i16, ptr %4, align 2
  store i16 %7, ptr %6, align 2
  ret void
}

; Function Attrs: mustprogress nounwind uwtable
define linkonce_odr hidden noundef nonnull align 8 dereferenceable(512) ptr @_ZNK4llvm12SelectionDAG13getDataLayoutEv(ptr noundef nonnull align 8 dereferenceable(904) %0) #1 comdat align 2 {
  %2 = alloca ptr, align 8
  store ptr %0, ptr %2, align 8
  %3 = load ptr, ptr %2, align 8
  %4 = getelementptr inbounds nuw %"class.llvm::SelectionDAG", ptr %3, i32 0, i32 5
  %5 = load ptr, ptr %4, align 8
  %6 = call noundef nonnull align 8 dereferenceable(512) ptr @_ZNK4llvm15MachineFunction13getDataLayoutEv(ptr noundef nonnull align 8 dereferenceable(1041) %5)
  ret ptr %6
}

; Function Attrs: mustprogress nounwind uwtable
define linkonce_odr hidden void @_ZN4llvm3EVTC2ENS_3MVT15SimpleValueTypeE(ptr noundef nonnull align 8 dereferenceable(16) %0, i16 noundef zeroext %1) unnamed_addr #1 comdat align 2 {
  %3 = alloca ptr, align 8
  %4 = alloca i16, align 2
  store ptr %0, ptr %3, align 8
  store i16 %1, ptr %4, align 2
  %5 = load ptr, ptr %3, align 8
  %6 = getelementptr inbounds nuw %"struct.llvm::EVT", ptr %5, i32 0, i32 0
  %7 = load i16, ptr %4, align 2
  call void @_ZN4llvm3MVTC2ENS0_15SimpleValueTypeE(ptr noundef nonnull align 2 dereferenceable(2) %6, i16 noundef zeroext %7)
  %8 = getelementptr inbounds nuw %"struct.llvm::EVT", ptr %5, i32 0, i32 1
  store ptr null, ptr %8, align 8
  ret void
}

; Function Attrs: mustprogress nounwind uwtable
define internal { ptr, i32 } @_ZL11GetExponentRN4llvm12SelectionDAGENS_7SDValueERKNS_14TargetLoweringERKNS_5SDLocE(ptr noundef nonnull align 8 dereferenceable(904) %0, ptr %1, i32 %2, ptr noundef nonnull align 8 dereferenceable(408123) %3, ptr noundef nonnull align 8 dereferenceable(12) %4) #1 {
  %6 = alloca %"class.llvm::SDValue", align 8
  %7 = alloca %"class.llvm::SDValue", align 8
  %8 = alloca ptr, align 8
  %9 = alloca ptr, align 8
  %10 = alloca ptr, align 8
  %11 = alloca %"class.llvm::SDValue", align 8
  %12 = alloca %"struct.llvm::EVT", align 8
  %13 = alloca %"class.llvm::SDValue", align 8
  %14 = alloca %"class.llvm::SDValue", align 8
  %15 = alloca %"struct.llvm::EVT", align 8
  %16 = alloca { ptr, i32 }, align 8
  %17 = alloca { ptr, i32 }, align 8
  %18 = alloca %"class.llvm::SDValue", align 8
  %19 = alloca %"struct.llvm::EVT", align 8
  %20 = alloca %"class.llvm::SDValue", align 8
  %21 = alloca %"class.llvm::SDValue", align 8
  %22 = alloca %"struct.llvm::EVT", align 8
  %23 = alloca %"struct.llvm::EVT", align 8
  %24 = alloca { ptr, i32 }, align 8
  %25 = alloca { ptr, i32 }, align 8
  %26 = alloca %"class.llvm::SDValue", align 8
  %27 = alloca %"struct.llvm::EVT", align 8
  %28 = alloca %"class.llvm::SDValue", align 8
  %29 = alloca %"class.llvm::SDValue", align 8
  %30 = alloca %"struct.llvm::EVT", align 8
  %31 = alloca { ptr, i32 }, align 8
  %32 = alloca { ptr, i32 }, align 8
  %33 = alloca %"struct.llvm::EVT", align 8
  %34 = alloca %"class.llvm::SDValue", align 8
  %35 = alloca { ptr, i32 }, align 8
  %36 = getelementptr inbounds nuw { ptr, i32 }, ptr %7, i32 0, i32 0
  store ptr %1, ptr %36, align 8
  %37 = getelementptr inbounds nuw { ptr, i32 }, ptr %7, i32 0, i32 1
  store i32 %2, ptr %37, align 8
  store ptr %0, ptr %8, align 8
  store ptr %3, ptr %9, align 8
  store ptr %4, ptr %10, align 8
  %38 = load ptr, ptr %8, align 8
  %39 = load ptr, ptr %10, align 8
  call void @_ZN4llvm3EVTC2ENS_3MVT15SimpleValueTypeE(ptr noundef nonnull align 8 dereferenceable(16) %12, i16 noundef zeroext 7)
  call void @llvm.memcpy.p0.p0.i64(ptr align 8 %13, ptr align 8 %7, i64 16, i1 false)
  %40 = load ptr, ptr %8, align 8
  %41 = load ptr, ptr %10, align 8
  call void @_ZN4llvm3EVTC2ENS_3MVT15SimpleValueTypeE(ptr noundef nonnull align 8 dereferenceable(16) %15, i16 noundef zeroext 7)
  %42 = getelementptr inbounds nuw { i16, ptr }, ptr %15, i32 0, i32 0
  %43 = load i16, ptr %42, align 8
  %44 = getelementptr inbounds nuw { i16, ptr }, ptr %15, i32 0, i32 1
  %45 = load ptr, ptr %44, align 8
  %46 = call { ptr, i32 } @_ZN4llvm12SelectionDAG11getConstantEmRKNS_5SDLocENS_3EVTEbb(ptr noundef nonnull align 8 dereferenceable(904) %40, i64 noundef 2139095040, ptr noundef nonnull align 8 dereferenceable(12) %41, i16 %43, ptr %45, i1 noundef zeroext false, i1 noundef zeroext false)
  store { ptr, i32 } %46, ptr %16, align 8
  call void @llvm.memcpy.p0.p0.i64(ptr align 8 %14, ptr align 8 %16, i64 12, i1 false)
  %47 = getelementptr inbounds nuw { i16, ptr }, ptr %12, i32 0, i32 0
  %48 = load i16, ptr %47, align 8
  %49 = getelementptr inbounds nuw { i16, ptr }, ptr %12, i32 0, i32 1
  %50 = load ptr, ptr %49, align 8
  %51 = call { ptr, i32 } @_ZN4llvm12SelectionDAG7getNodeEjRKNS_5SDLocENS_3EVTENS_7SDValueES5_(ptr noundef nonnull align 8 dereferenceable(904) %38, i32 noundef 185, ptr noundef nonnull align 8 dereferenceable(12) %39, i16 %48, ptr %50, ptr noundef byval(%"class.llvm::SDValue") align 8 %13, ptr noundef byval(%"class.llvm::SDValue") align 8 %14)
  store { ptr, i32 } %51, ptr %17, align 8
  call void @llvm.memcpy.p0.p0.i64(ptr align 8 %11, ptr align 8 %17, i64 12, i1 false)
  %52 = load ptr, ptr %8, align 8
  %53 = load ptr, ptr %10, align 8
  call void @_ZN4llvm3EVTC2ENS_3MVT15SimpleValueTypeE(ptr noundef nonnull align 8 dereferenceable(16) %19, i16 noundef zeroext 7)
  call void @llvm.memcpy.p0.p0.i64(ptr align 8 %20, ptr align 8 %11, i64 16, i1 false)
  %54 = load ptr, ptr %8, align 8
  %55 = load ptr, ptr %10, align 8
  %56 = load ptr, ptr %9, align 8
  call void @_ZN4llvm3EVTC2ENS_3MVT15SimpleValueTypeE(ptr noundef nonnull align 8 dereferenceable(16) %23, i16 noundef zeroext 7)
  %57 = load ptr, ptr %8, align 8
  %58 = call noundef nonnull align 8 dereferenceable(512) ptr @_ZNK4llvm12SelectionDAG13getDataLayoutEv(ptr noundef nonnull align 8 dereferenceable(904) %57)
  %59 = getelementptr inbounds nuw { i16, ptr }, ptr %23, i32 0, i32 0
  %60 = load i16, ptr %59, align 8
  %61 = getelementptr inbounds nuw { i16, ptr }, ptr %23, i32 0, i32 1
  %62 = load ptr, ptr %61, align 8
  %63 = call { i16, ptr } @_ZNK4llvm18TargetLoweringBase16getShiftAmountTyENS_3EVTERKNS_10DataLayoutE(ptr noundef nonnull align 8 dereferenceable(408123) %56, i16 %60, ptr %62, ptr noundef nonnull align 8 dereferenceable(512) %58)
  %64 = getelementptr inbounds nuw { i16, ptr }, ptr %22, i32 0, i32 0
  %65 = extractvalue { i16, ptr } %63, 0
  store i16 %65, ptr %64, align 8
  %66 = getelementptr inbounds nuw { i16, ptr }, ptr %22, i32 0, i32 1
  %67 = extractvalue { i16, ptr } %63, 1
  store ptr %67, ptr %66, align 8
  %68 = getelementptr inbounds nuw { i16, ptr }, ptr %22, i32 0, i32 0
  %69 = load i16, ptr %68, align 8
  %70 = getelementptr inbounds nuw { i16, ptr }, ptr %22, i32 0, i32 1
  %71 = load ptr, ptr %70, align 8
  %72 = call { ptr, i32 } @_ZN4llvm12SelectionDAG11getConstantEmRKNS_5SDLocENS_3EVTEbb(ptr noundef nonnull align 8 dereferenceable(904) %54, i64 noundef 23, ptr noundef nonnull align 8 dereferenceable(12) %55, i16 %69, ptr %71, i1 noundef zeroext false, i1 noundef zeroext false)
  store { ptr, i32 } %72, ptr %24, align 8
  call void @llvm.memcpy.p0.p0.i64(ptr align 8 %21, ptr align 8 %24, i64 12, i1 false)
  %73 = getelementptr inbounds nuw { i16, ptr }, ptr %19, i32 0, i32 0
  %74 = load i16, ptr %73, align 8
  %75 = getelementptr inbounds nuw { i16, ptr }, ptr %19, i32 0, i32 1
  %76 = load ptr, ptr %75, align 8
  %77 = call { ptr, i32 } @_ZN4llvm12SelectionDAG7getNodeEjRKNS_5SDLocENS_3EVTENS_7SDValueES5_(ptr noundef nonnull align 8 dereferenceable(904) %52, i32 noundef 191, ptr noundef nonnull align 8 dereferenceable(12) %53, i16 %74, ptr %76, ptr noundef byval(%"class.llvm::SDValue") align 8 %20, ptr noundef byval(%"class.llvm::SDValue") align 8 %21)
  store { ptr, i32 } %77, ptr %25, align 8
  call void @llvm.memcpy.p0.p0.i64(ptr align 8 %18, ptr align 8 %25, i64 12, i1 false)
  %78 = load ptr, ptr %8, align 8
  %79 = load ptr, ptr %10, align 8
  call void @_ZN4llvm3EVTC2ENS_3MVT15SimpleValueTypeE(ptr noundef nonnull align 8 dereferenceable(16) %27, i16 noundef zeroext 7)
  call void @llvm.memcpy.p0.p0.i64(ptr align 8 %28, ptr align 8 %18, i64 16, i1 false)
  %80 = load ptr, ptr %8, align 8
  %81 = load ptr, ptr %10, align 8
  call void @_ZN4llvm3EVTC2ENS_3MVT15SimpleValueTypeE(ptr noundef nonnull align 8 dereferenceable(16) %30, i16 noundef zeroext 7)
  %82 = getelementptr inbounds nuw { i16, ptr }, ptr %30, i32 0, i32 0
  %83 = load i16, ptr %82, align 8
  %84 = getelementptr inbounds nuw { i16, ptr }, ptr %30, i32 0, i32 1
  %85 = load ptr, ptr %84, align 8
  %86 = call { ptr, i32 } @_ZN4llvm12SelectionDAG11getConstantEmRKNS_5SDLocENS_3EVTEbb(ptr noundef nonnull align 8 dereferenceable(904) %80, i64 noundef 127, ptr noundef nonnull align 8 dereferenceable(12) %81, i16 %83, ptr %85, i1 noundef zeroext false, i1 noundef zeroext false)
  store { ptr, i32 } %86, ptr %31, align 8
  call void @llvm.memcpy.p0.p0.i64(ptr align 8 %29, ptr align 8 %31, i64 12, i1 false)
  %87 = getelementptr inbounds nuw { i16, ptr }, ptr %27, i32 0, i32 0
  %88 = load i16, ptr %87, align 8
  %89 = getelementptr inbounds nuw { i16, ptr }, ptr %27, i32 0, i32 1
  %90 = load ptr, ptr %89, align 8
  %91 = call { ptr, i32 } @_ZN4llvm12SelectionDAG7getNodeEjRKNS_5SDLocENS_3EVTENS_7SDValueES5_(ptr noundef nonnull align 8 dereferenceable(904) %78, i32 noundef 57, ptr noundef nonnull align 8 dereferenceable(12) %79, i16 %88, ptr %90, ptr noundef byval(%"class.llvm::SDValue") align 8 %28, ptr noundef byval(%"class.llvm::SDValue") align 8 %29)
  store { ptr, i32 } %91, ptr %32, align 8
  call void @llvm.memcpy.p0.p0.i64(ptr align 8 %26, ptr align 8 %32, i64 12, i1 false)
  %92 = load ptr, ptr %8, align 8
  %93 = load ptr, ptr %10, align 8
  call void @_ZN4llvm3EVTC2ENS_3MVT15SimpleValueTypeE(ptr noundef nonnull align 8 dereferenceable(16) %33, i16 noundef zeroext 12)
  call void @llvm.memcpy.p0.p0.i64(ptr align 8 %34, ptr align 8 %26, i64 16, i1 false)
  %94 = getelementptr inbounds nuw { i16, ptr }, ptr %33, i32 0, i32 0
  %95 = load i16, ptr %94, align 8
  %96 = getelementptr inbounds nuw { i16, ptr }, ptr %33, i32 0, i32 1
  %97 = load ptr, ptr %96, align 8
  %98 = call { ptr, i32 } @_ZN4llvm12SelectionDAG7getNodeEjRKNS_5SDLocENS_3EVTENS_7SDValueE(ptr noundef nonnull align 8 dereferenceable(904) %92, i32 noundef 219, ptr noundef nonnull align 8 dereferenceable(12) %93, i16 %95, ptr %97, ptr noundef byval(%"class.llvm::SDValue") align 8 %34)
  store { ptr, i32 } %98, ptr %35, align 8
  call void @llvm.memcpy.p0.p0.i64(ptr align 8 %6, ptr align 8 %35, i64 12, i1 false)
  %99 = load { ptr, i32 }, ptr %6, align 8
  ret { ptr, i32 } %99
}