; Function Attrs: mustprogress nounwind uwtable
define internal fastcc { ptr, i32 } @_ZL11GetExponentRN4llvm12SelectionDAGENS_7SDValueERKNS_14TargetLoweringERKNS_5SDLocE(ptr noundef nonnull align 8 dereferenceable(904) %0, ptr %1, i32 %2, ptr noundef nonnull align 8 dereferenceable(408123) %3, ptr noundef nonnull align 8 dereferenceable(12) %4) unnamed_addr #0 {
  %6 = alloca %"class.llvm::SDValue", align 8
  %7 = alloca %"class.llvm::SDValue", align 8
  %8 = alloca %"class.llvm::SDValue", align 8
  %9 = alloca %"class.llvm::SDValue", align 8
  %10 = alloca %"class.llvm::SDValue", align 8
  %11 = alloca %"class.llvm::SDValue", align 8
  %12 = alloca %"class.llvm::SDValue", align 8
  store ptr %1, ptr %6, align 8
  %.sroa.251.0..sroa_idx = getelementptr inbounds i8, ptr %6, i64 8
  store i32 %2, ptr %.sroa.251.0..sroa_idx, align 8
  %13 = tail call { ptr, i32 } @_ZN4llvm12SelectionDAG11getConstantEmRKNS_5SDLocENS_3EVTEbb(ptr noundef nonnull align 8 dereferenceable(904) %0, i64 noundef 2139095040, ptr noundef nonnull align 8 dereferenceable(12) %4, i16 7, ptr null, i1 noundef zeroext false, i1 noundef zeroext false) #32
  %.fca.0.extract28 = extractvalue { ptr, i32 } %13, 0
  %.fca.1.extract29 = extractvalue { ptr, i32 } %13, 1
  store ptr %.fca.0.extract28, ptr %7, align 8
  %.sroa.231.0..sroa_idx = getelementptr inbounds i8, ptr %7, i64 8
  store i32 %.fca.1.extract29, ptr %.sroa.231.0..sroa_idx, align 8
  %14 = tail call { ptr, i32 } @_ZN4llvm12SelectionDAG7getNodeEjRKNS_5SDLocENS_3EVTENS_7SDValueES5_(ptr noundef nonnull align 8 dereferenceable(904) %0, i32 noundef 185, ptr noundef nonnull align 8 dereferenceable(12) %4, i16 7, ptr null, ptr noundef nonnull byval(%"class.llvm::SDValue") align 8 %6, ptr noundef nonnull byval(%"class.llvm::SDValue") align 8 %7) #32
  %.fca.0.extract24 = extractvalue { ptr, i32 } %14, 0
  %.fca.1.extract25 = extractvalue { ptr, i32 } %14, 1
  store ptr %.fca.0.extract24, ptr %8, align 8
  %.sroa.233.0..sroa_idx = getelementptr inbounds i8, ptr %8, i64 8
  store i32 %.fca.1.extract25, ptr %.sroa.233.0..sroa_idx, align 8
  %15 = getelementptr inbounds nuw i8, ptr %0, i64 40
  %16 = load ptr, ptr %15, align 8
  %17 = tail call noundef nonnull align 8 dereferenceable(512) ptr @_ZNK4llvm15MachineFunction13getDataLayoutEv(ptr noundef nonnull align 8 dereferenceable(1041) %16) #32
  %18 = tail call { i16, ptr } @_ZNK4llvm18TargetLoweringBase16getShiftAmountTyENS_3EVTERKNS_10DataLayoutE(ptr noundef nonnull align 8 dereferenceable(408123) %3, i16 7, ptr null, ptr noundef nonnull align 8 dereferenceable(512) %17) #32
  %19 = extractvalue { i16, ptr } %18, 0
  %20 = extractvalue { i16, ptr } %18, 1
  %21 = tail call { ptr, i32 } @_ZN4llvm12SelectionDAG11getConstantEmRKNS_5SDLocENS_3EVTEbb(ptr noundef nonnull align 8 dereferenceable(904) %0, i64 noundef 23, ptr noundef nonnull align 8 dereferenceable(12) %4, i16 %19, ptr %20, i1 noundef zeroext false, i1 noundef zeroext false) #32
  %.fca.0.extract15 = extractvalue { ptr, i32 } %21, 0
  %.fca.1.extract16 = extractvalue { ptr, i32 } %21, 1
  store ptr %.fca.0.extract15, ptr %9, align 8
  %.sroa.218.0..sroa_idx = getelementptr inbounds i8, ptr %9, i64 8
  store i32 %.fca.1.extract16, ptr %.sroa.218.0..sroa_idx, align 8
  %22 = tail call { ptr, i32 } @_ZN4llvm12SelectionDAG7getNodeEjRKNS_5SDLocENS_3EVTENS_7SDValueES5_(ptr noundef nonnull align 8 dereferenceable(904) %0, i32 noundef 191, ptr noundef nonnull align 8 dereferenceable(12) %4, i16 7, ptr null, ptr noundef nonnull byval(%"class.llvm::SDValue") align 8 %8, ptr noundef nonnull byval(%"class.llvm::SDValue") align 8 %9) #32
  %.fca.0.extract11 = extractvalue { ptr, i32 } %22, 0
  %.fca.1.extract12 = extractvalue { ptr, i32 } %22, 1
  store ptr %.fca.0.extract11, ptr %10, align 8
  %.sroa.222.0..sroa_idx = getelementptr inbounds i8, ptr %10, i64 8
  store i32 %.fca.1.extract12, ptr %.sroa.222.0..sroa_idx, align 8
  %23 = tail call { ptr, i32 } @_ZN4llvm12SelectionDAG11getConstantEmRKNS_5SDLocENS_3EVTEbb(ptr noundef nonnull align 8 dereferenceable(904) %0, i64 noundef 127, ptr noundef nonnull align 8 dereferenceable(12) %4, i16 7, ptr null, i1 noundef zeroext false, i1 noundef zeroext false) #32
  %.fca.0.extract5 = extractvalue { ptr, i32 } %23, 0
  %.fca.1.extract6 = extractvalue { ptr, i32 } %23, 1
  store ptr %.fca.0.extract5, ptr %11, align 8
  %.sroa.28.0..sroa_idx = getelementptr inbounds i8, ptr %11, i64 8
  store i32 %.fca.1.extract6, ptr %.sroa.28.0..sroa_idx, align 8
  %24 = tail call { ptr, i32 } @_ZN4llvm12SelectionDAG7getNodeEjRKNS_5SDLocENS_3EVTENS_7SDValueES5_(ptr noundef nonnull align 8 dereferenceable(904) %0, i32 noundef 57, ptr noundef nonnull align 8 dereferenceable(12) %4, i16 7, ptr null, ptr noundef nonnull byval(%"class.llvm::SDValue") align 8 %10, ptr noundef nonnull byval(%"class.llvm::SDValue") align 8 %11) #32
  %.fca.0.extract1 = extractvalue { ptr, i32 } %24, 0
  %.fca.1.extract2 = extractvalue { ptr, i32 } %24, 1
  store ptr %.fca.0.extract1, ptr %12, align 8
  %.sroa.210.0..sroa_idx = getelementptr inbounds i8, ptr %12, i64 8
  store i32 %.fca.1.extract2, ptr %.sroa.210.0..sroa_idx, align 8
  %25 = tail call { ptr, i32 } @_ZN4llvm12SelectionDAG7getNodeEjRKNS_5SDLocENS_3EVTENS_7SDValueE(ptr noundef nonnull align 8 dereferenceable(904) %0, i32 noundef 219, ptr noundef nonnull align 8 dereferenceable(12) %4, i16 12, ptr null, ptr noundef nonnull byval(%"class.llvm::SDValue") align 8 %12) #32
  ret { ptr, i32 } %25
}